target datalayout = "e-m:e-p270:32:32-p271:32:32-p272:64:64-i64:64-i128:128-f80:128-n8:16:32:64-S128"
target triple = "x86_64-pc-linux-gnu"

@hf_netlogon_len = internal global i32 0, align 4
@hf_netlogon_unknown_string = internal global i32 0, align 4
@ett_UNICODE_MULTI = internal global i32 0, align 4
@.str.1202 = private unnamed_addr constant [8 x i8] c"unknown\00", align 1
@.str.1241 = private unnamed_addr constant [15 x i8] c"UNICODE_MULTI:\00", align 1

; Function Attrs: null_pointer_is_valid sspstrong uwtable
define internal i32 @netlogon_dissect_UNICODE_MULTI(ptr noundef %0, i32 noundef %1, ptr noundef %2, ptr noundef %3, ptr noundef %4, ptr noundef %5) #0 {
  %7 = alloca ptr, align 8
  %8 = alloca i32, align 4
  %9 = alloca ptr, align 8
  %10 = alloca ptr, align 8
  %11 = alloca ptr, align 8
  %12 = alloca ptr, align 8
  %13 = alloca ptr, align 8
  %14 = alloca ptr, align 8
  %15 = alloca i32, align 4
  store ptr %0, ptr %7, align 8
  store i32 %1, ptr %8, align 4
  store ptr %2, ptr %9, align 8
  store ptr %3, ptr %10, align 8
  store ptr %4, ptr %11, align 8
  store ptr %5, ptr %12, align 8
  call void @llvm.lifetime.start.p0(i64 8, ptr %13) #15
  store ptr null, ptr %13, align 8
  call void @llvm.lifetime.start.p0(i64 8, ptr %14) #15
  store ptr null, ptr %14, align 8
  call void @llvm.lifetime.start.p0(i64 4, ptr %15) #15
  %16 = load i32, ptr %8, align 4
  store i32 %16, ptr %15, align 4
  %17 = load ptr, ptr %10, align 8
  %18 = icmp ne ptr %17, null
  br i1 %18, label %19, label %25

19:                                               ; preds = %6
  %20 = load ptr, ptr %10, align 8
  %21 = load ptr, ptr %7, align 8
  %22 = load i32, ptr %8, align 4
  %23 = load i32, ptr @ett_UNICODE_MULTI, align 4
  %24 = call ptr @proto_tree_add_subtree(ptr noundef %20, ptr noundef %21, i32 noundef %22, i32 noundef 0, i32 noundef %23, ptr noundef %13, ptr noundef @.str.1241)
  store ptr %24, ptr %14, align 8
  br label %25

25:                                               ; preds = %19, %6
  %26 = load ptr, ptr %7, align 8
  %27 = load i32, ptr %8, align 4
  %28 = load ptr, ptr %9, align 8
  %29 = load ptr, ptr %14, align 8
  %30 = load ptr, ptr %11, align 8
  %31 = load ptr, ptr %12, align 8
  %32 = load i32, ptr @hf_netlogon_len, align 4
  %33 = call i32 @dissect_ndr_uint32(ptr noundef %26, i32 noundef %27, ptr noundef %28, ptr noundef %29, ptr noundef %30, ptr noundef %31, i32 noundef %32, ptr noundef null)
  store i32 %33, ptr %8, align 4
  %34 = load ptr, ptr %7, align 8
  %35 = load i32, ptr %8, align 4
  %36 = load ptr, ptr %9, align 8
  %37 = load ptr, ptr %14, align 8
  %38 = load ptr, ptr %11, align 8
  %39 = load ptr, ptr %12, align 8
  %40 = load i32, ptr @hf_netlogon_unknown_string, align 4
  %41 = call i32 @dissect_ndr_pointer(ptr noundef %34, i32 noundef %35, ptr noundef %36, ptr noundef %37, ptr noundef %38, ptr noundef %39, ptr noundef @netlogon_dissect_UNICODE_MULTI_array, i32 noundef 2, ptr noundef @.str.1202, i32 noundef %40)
  store i32 %41, ptr %8, align 4
  %42 = load ptr, ptr %13, align 8
  %43 = load i32, ptr %8, align 4
  %44 = load i32, ptr %15, align 4
  %45 = sub i32 %43, %44
  call void @proto_item_set_len(ptr noundef %42, i32 noundef %45)
  %46 = load i32, ptr %8, align 4
  call void @llvm.lifetime.end.p0(i64 4, ptr %15) #15
  call void @llvm.lifetime.end.p0(i64 8, ptr %14) #15
  call void @llvm.lifetime.end.p0(i64 8, ptr %13) #15
  ret i32 %46
}