; Function Attrs: null_pointer_is_valid sspstrong uwtable
define internal i32 @netlogon_dissect_UNICODE_MULTI(ptr noundef %0, i32 noundef %1, ptr noundef %2, ptr noundef %3, ptr noundef %4, ptr noundef %5) #0 {
  %7 = alloca ptr, align 8
  call void @llvm.lifetime.start.p0(i64 8, ptr nonnull %7) #15
  store ptr null, ptr %7, align 8
  %.not = icmp eq ptr %3, null
  br i1 %.not, label %11, label %8

8:                                                ; preds = %6
  %9 = load i32, ptr @ett_UNICODE_MULTI, align 4
  %10 = call ptr @proto_tree_add_subtree(ptr noundef nonnull %3, ptr noundef %0, i32 noundef %1, i32 noundef 0, i32 noundef %9, ptr noundef nonnull %7, ptr noundef nonnull @.str.1241)
  br label %11

11:                                               ; preds = %8, %6
  %.0 = phi ptr [ %10, %8 ], [ null, %6 ]
  %12 = load i32, ptr @hf_netlogon_len, align 4
  %13 = call i32 @dissect_ndr_uint32(ptr noundef %0, i32 noundef %1, ptr noundef %2, ptr noundef %.0, ptr noundef %4, ptr noundef %5, i32 noundef %12, ptr noundef null)
  %14 = load i32, ptr @hf_netlogon_unknown_string, align 4
  %15 = call i32 @dissect_ndr_pointer(ptr noundef %0, i32 noundef %13, ptr noundef %2, ptr noundef %.0, ptr noundef %4, ptr noundef %5, ptr noundef nonnull @netlogon_dissect_UNICODE_MULTI_array, i32 noundef 2, ptr noundef nonnull @.str.1202, i32 noundef %14)
  %16 = load ptr, ptr %7, align 8
  %17 = sub i32 %15, %1
  call void @proto_item_set_len(ptr noundef %16, i32 noundef %17)
  call void @llvm.lifetime.end.p0(i64 8, ptr nonnull %7) #15
  ret i32 %15
}